; Function Attrs: nounwind uwtable
define ptr @l_Lean_Compiler_LCNF_Param_forFVarM___rarg(ptr noundef %0, ptr noundef %1, ptr noundef %2) #0 {
  %4 = getelementptr inbounds nuw i8, ptr %2, i64 24
  %5 = load ptr, ptr %4, align 8, !tbaa !4
  %6 = ptrtoint ptr %5 to i64
  %7 = and i64 %6, 1
  %.not = icmp eq i64 %7, 0
  br i1 %.not, label %8, label %lean_inc.exit

8:                                                ; preds = %3
  %.val.i = load i32, ptr %5, align 4, !tbaa !8
  %9 = icmp sgt i32 %.val.i, 0
  br i1 %9, label %10, label %12, !prof !13

10:                                               ; preds = %8
  %11 = add nuw i32 %.val.i, 1
  store i32 %11, ptr %5, align 4, !tbaa !8
  br label %lean_inc.exit

12:                                               ; preds = %8
  %.not.i7 = icmp eq i32 %.val.i, 0
  br i1 %.not.i7, label %lean_inc.exit, label %13

13:                                               ; preds = %12
  tail call void @lean_inc_ref_cold(ptr noundef nonnull %5) #4
  br label %lean_inc.exit

lean_inc.exit:                                    ; preds = %13, %12, %10, %3
  %14 = ptrtoint ptr %2 to i64
  %15 = and i64 %14, 1
  %.not8 = icmp eq i64 %15, 0
  br i1 %.not8, label %16, label %lean_dec.exit

16:                                               ; preds = %lean_inc.exit
  %17 = load i32, ptr %2, align 4, !tbaa !8
  %18 = icmp sgt i32 %17, 1
  br i1 %18, label %19, label %21, !prof !13

19:                                               ; preds = %16
  %20 = add nsw i32 %17, -1
  store i32 %20, ptr %2, align 4, !tbaa !8
  br label %lean_dec.exit

21:                                               ; preds = %16
  %.not.i = icmp eq i32 %17, 0
  br i1 %.not.i, label %lean_dec.exit, label %22

22:                                               ; preds = %21
  tail call void @lean_dec_ref_cold(ptr noundef nonnull %2) #4
  br label %lean_dec.exit

lean_dec.exit:                                    ; preds = %22, %21, %19, %lean_inc.exit
  %23 = tail call ptr @l_Lean_Compiler_LCNF_Expr_forFVarM___rarg(ptr noundef %0, ptr noundef %1, ptr noundef %5)
  ret ptr %23
}